; Function Attrs: mustprogress nofree norecurse nosync nounwind willreturn memory(read, argmem: readwrite, inaccessiblemem: none) uwtable
define hidden void @_ZNK4llvh6detail9IEEEFloat27convertDoubleAPFloatToAPIntEv(ptr noalias writeonly sret(%"class.llvh::APInt") align 8 captures(none) initializes((0, 12)) %agg.result, ptr noundef nonnull readonly align 8 captures(none) dereferenceable(24) %this) local_unnamed_addr #11 align 2 {
entry:
  %category.i.i.i = getelementptr inbounds nuw i8, ptr %this, i64 18
  %bf.load.i.i.i = load i8, ptr %category.i.i.i, align 2
  %bf.clear.i.i.i = and i8 %bf.load.i.i.i, 6
  %0 = icmp ne i8 %bf.clear.i.i.i, 0
  %bf.clear.i.i = and i8 %bf.load.i.i.i, 7
  %cmp.i.i = icmp ne i8 %bf.clear.i.i, 3
  %1 = and i1 %0, %cmp.i.i
  br i1 %1, label %if.then, label %if.else

if.then:                                          ; preds = %entry
  %exponent = getelementptr inbounds nuw i8, ptr %this, i64 16
  %2 = load i16, ptr %exponent, align 8
  %conv = sext i16 %2 to i64
  %add = add nsw i64 %conv, 1023
  %3 = load ptr, ptr %this, align 8
  %precision.i.i.i = getelementptr inbounds nuw i8, ptr %3, i64 4
  %4 = load i32, ptr %precision.i.i.i, align 4
  %5 = add i32 %4, -64
  %cmp.i.i3 = icmp ult i32 %5, -128
  %significand.i.i = getelementptr inbounds nuw i8, ptr %this, i64 8
  %6 = load ptr, ptr %significand.i.i, align 8
  %retval.0.i.i = select i1 %cmp.i.i3, ptr %6, ptr %significand.i.i
  %7 = load i64, ptr %retval.0.i.i, align 8
  %cmp = icmp eq i64 %add, 1
  br i1 %cmp, label %land.lhs.true, label %if.end18

land.lhs.true:                                    ; preds = %if.then
  %and = lshr i64 %7, 52
  %and.lobit = and i64 %and, 1
  br label %if.end18

if.else:                                          ; preds = %entry
  switch i8 %bf.clear.i.i, label %if.else14 [
    i8 3, label %if.end18
    i8 0, label %if.then13
  ]

if.then13:                                        ; preds = %if.else
  br label %if.end18

if.else14:                                        ; preds = %if.else
  %8 = load ptr, ptr %this, align 8
  %precision.i.i.i4 = getelementptr inbounds nuw i8, ptr %8, i64 4
  %9 = load i32, ptr %precision.i.i.i4, align 4
  %10 = add i32 %9, -64
  %cmp.i.i5 = icmp ult i32 %10, -128
  %significand.i.i6 = getelementptr inbounds nuw i8, ptr %this, i64 8
  %11 = load ptr, ptr %significand.i.i6, align 8
  %retval.0.i.i7 = select i1 %cmp.i.i5, ptr %11, ptr %significand.i.i6
  %12 = load i64, ptr %retval.0.i.i7, align 8
  br label %if.end18

if.end18:                                         ; preds = %land.lhs.true, %if.else, %if.else14, %if.then13, %if.then
  %myexponent.0 = phi i64 [ %add, %if.then ], [ 2047, %if.then13 ], [ 2047, %if.else14 ], [ %and.lobit, %land.lhs.true ], [ 0, %if.else ]
  %mysignificand.0 = phi i64 [ %7, %if.then ], [ 0, %if.then13 ], [ %12, %if.else14 ], [ %7, %land.lhs.true ], [ 0, %if.else ]
  %bf.lshr = lshr i8 %bf.load.i.i.i, 3
  %conv23 = zext nneg i8 %bf.lshr to i64
  %shl = shl i64 %conv23, 63
  %and24 = shl i64 %myexponent.0, 52
  %shl25 = and i64 %and24, 9218868437227405312
  %or = or disjoint i64 %shl25, %shl
  %and26 = and i64 %mysignificand.0, 4503599627370495
  %or27 = or disjoint i64 %or, %and26
  %BitWidth.i = getelementptr inbounds nuw i8, ptr %agg.result, i64 8
  store i32 64, ptr %BitWidth.i, align 8
  store i64 %or27, ptr %agg.result, align 8
  ret void
}